target datalayout = "e-m:e-p270:32:32-p271:32:32-p272:64:64-i64:64-i128:128-f80:128-n8:16:32:64-S128"
target triple = "x86_64-pc-linux-gnu"

%struct.AVFormatContext = type { ptr, ptr, ptr, ptr, ptr, i32, i32, ptr, i32, ptr, i32, ptr, ptr, i64, i64, i64, i32, i32, i32, i64, i64, ptr, i32, i32, ptr, i32, i32, i32, i32, ptr, i64, i32, i32, %struct.AVIOInterruptCB, i32, i32, i32, i32, i64, i32, i32, i32, i32, i32, i32, i32, i32, i32, i32, i32, i32, i64, i32, i32, i32, i32, i32, ptr, ptr, ptr, ptr, i32, ptr, ptr, ptr, ptr, i32, ptr, ptr, i64, ptr, ptr, ptr, i64 }
%struct.AVIOInterruptCB = type { ptr, ptr }

@.str.3 = private unnamed_addr constant [59 x i8] c"Filesize %ld invalid for KVAG, output file will be broken\0A\00", align 1

; Function Attrs: alwaysinline nounwind uwtable
define internal i64 @avio_tell(ptr noundef %0) #3 {
  %2 = alloca ptr, align 8
  store ptr %0, ptr %2, align 8, !tbaa !69
  %3 = load ptr, ptr %2, align 8, !tbaa !69
  %4 = call i64 @avio_seek(ptr noundef %3, i64 noundef 0, i32 noundef 1)
  ret i64 %4
}

; Function Attrs: nounwind uwtable
define internal i32 @kvag_write_trailer(ptr noundef %0) #0 {
  %2 = alloca ptr, align 8
  %3 = alloca i64, align 8
  %4 = alloca i64, align 8
  store ptr %0, ptr %2, align 8, !tbaa !14
  call void @llvm.lifetime.start.p0(i64 8, ptr %3) #4
  call void @llvm.lifetime.start.p0(i64 8, ptr %4) #4
  %5 = load ptr, ptr %2, align 8, !tbaa !14
  %6 = getelementptr inbounds nuw %struct.AVFormatContext, ptr %5, i32 0, i32 4
  %7 = load ptr, ptr %6, align 8, !tbaa !18
  %8 = call i64 @avio_tell(ptr noundef %7)
  store i64 %8, ptr %3, align 8, !tbaa !66
  %9 = load i64, ptr %3, align 8, !tbaa !66
  %10 = sub nsw i64 %9, 14
  store i64 %10, ptr %4, align 8, !tbaa !66
  %11 = load i64, ptr %4, align 8, !tbaa !66
  %12 = icmp slt i64 %11, 4294967295
  br i1 %12, label %13, label %28

13:                                               ; preds = %1
  %14 = load ptr, ptr %2, align 8, !tbaa !14
  %15 = getelementptr inbounds nuw %struct.AVFormatContext, ptr %14, i32 0, i32 4
  %16 = load ptr, ptr %15, align 8, !tbaa !18
  %17 = call i64 @avio_seek(ptr noundef %16, i64 noundef 4, i32 noundef 0)
  %18 = load ptr, ptr %2, align 8, !tbaa !14
  %19 = getelementptr inbounds nuw %struct.AVFormatContext, ptr %18, i32 0, i32 4
  %20 = load ptr, ptr %19, align 8, !tbaa !18
  %21 = load i64, ptr %4, align 8, !tbaa !66
  %22 = trunc i64 %21 to i32
  call void @avio_wl32(ptr noundef %20, i32 noundef %22)
  %23 = load ptr, ptr %2, align 8, !tbaa !14
  %24 = getelementptr inbounds nuw %struct.AVFormatContext, ptr %23, i32 0, i32 4
  %25 = load ptr, ptr %24, align 8, !tbaa !18
  %26 = load i64, ptr %3, align 8, !tbaa !66
  %27 = call i64 @avio_seek(ptr noundef %25, i64 noundef %26, i32 noundef 0)
  br label %31

28:                                               ; preds = %1
  %29 = load ptr, ptr %2, align 8, !tbaa !14
  %30 = load i64, ptr %3, align 8, !tbaa !66
  call void (ptr, i32, ptr, ...) @av_log(ptr noundef %29, i32 noundef 24, ptr noundef @.str.3, i64 noundef %30)
  br label %31

31:                                               ; preds = %28, %13
  call void @llvm.lifetime.end.p0(i64 8, ptr %4) #4
  call void @llvm.lifetime.end.p0(i64 8, ptr %3) #4
  ret i32 0
}