; Function Attrs: nounwind uwtable
define internal noundef i32 @kvag_write_trailer(ptr noundef %0) #1 {
  %2 = getelementptr inbounds nuw i8, ptr %0, i64 32
  %3 = load ptr, ptr %2, align 8, !tbaa !12
  %4 = tail call i64 @avio_seek(ptr noundef %3, i64 noundef 0, i32 noundef 1) #4
  %5 = icmp slt i64 %4, 4294967309
  br i1 %5, label %6, label %14

6:                                                ; preds = %1
  %7 = load ptr, ptr %2, align 8, !tbaa !12
  %8 = tail call i64 @avio_seek(ptr noundef %7, i64 noundef 4, i32 noundef 0) #4
  %9 = load ptr, ptr %2, align 8, !tbaa !12
  %10 = trunc i64 %4 to i32
  %11 = add i32 %10, -14
  tail call void @avio_wl32(ptr noundef %9, i32 noundef %11) #4
  %12 = load ptr, ptr %2, align 8, !tbaa !12
  %13 = tail call i64 @avio_seek(ptr noundef %12, i64 noundef %4, i32 noundef 0) #4
  br label %15

14:                                               ; preds = %1
  tail call void (ptr, i32, ptr, ...) @av_log(ptr noundef nonnull %0, i32 noundef 24, ptr noundef nonnull @.str.3, i64 noundef %4) #4
  br label %15

15:                                               ; preds = %14, %6
  ret i32 0
}